	.file	"ex1.c"
	.text
	.globl	calc
	.type	calc, @function
calc:
.LFB2:
	.cfi_startproc
	pushl	%ebp
	.cfi_def_cfa_offset 8
	.cfi_offset 5, -8
	movl	%esp, %ebp
	.cfi_def_cfa_register 5
	call	__x86.get_pc_thunk.ax
	addl	$_GLOBAL_OFFSET_TABLE_, %eax
	movl	8(%ebp), %eax
	addl	$1, %eax
	popl	%ebp
	.cfi_restore 5
	.cfi_def_cfa 4, 4
	ret
	.cfi_endproc
.LFE2:
	.size	calc, .-calc
	.section	.rodata
.LC0:
	.string	"use: %s <int num>\n"
.LC1:
	.string	"y=%d\n"
	.text
	.globl	main
	.type	main, @function
main:
.LFB3:
	.cfi_startproc
	leal	4(%esp), %ecx
	.cfi_def_cfa 1, 0
	andl	$-16, %esp
	pushl	-4(%ecx)
	pushl	%ebp
	.cfi_escape 0x10,0x5,0x2,0x75,0
	movl	%esp, %ebp
	pushl	%ebx
	pushl	%ecx
	.cfi_escape 0xf,0x3,0x75,0x78,0x6
	.cfi_escape 0x10,0x3,0x2,0x75,0x7c
	subl	$16, %esp
	call	__x86.get_pc_thunk.bx
	addl	$_GLOBAL_OFFSET_TABLE_, %ebx
	movl	%ecx, %eax
	cmpl	$2, (%eax)
	je	.L4
	movl	4(%eax), %eax
	movl	(%eax), %edx
	movl	stderr@GOT(%ebx), %eax
	movl	(%eax), %eax
	subl	$4, %esp
	pushl	%edx
	leal	.LC0@GOTOFF(%ebx), %edx
	pushl	%edx
	pushl	%eax
	call	fprintf@PLT
	addl	$16, %esp
	movl	$1, %eax
	jmp	.L5
.L4:
	movl	4(%eax), %eax
	addl	$4, %eax
	movl	(%eax), %eax
	subl	$12, %esp
	pushl	%eax
	call	atoi@PLT
	addl	$16, %esp
	movl	%eax, -12(%ebp)
	subl	$12, %esp
	pushl	-12(%ebp)
	call	calc
	addl	$16, %esp
	movl	%eax, -16(%ebp)
	subl	$8, %esp
	pushl	-16(%ebp)
	leal	.LC1@GOTOFF(%ebx), %eax
	pushl	%eax
	call	printf@PLT
	addl	$16, %esp
	movl	$0, %eax
.L5:
	leal	-8(%ebp), %esp
	popl	%ecx
	.cfi_restore 1
	.cfi_def_cfa 1, 0
	popl	%ebx
	.cfi_restore 3
	popl	%ebp
	.cfi_restore 5
	leal	-4(%ecx), %esp
	.cfi_def_cfa 4, 4
	ret
	.cfi_endproc
.LFE3:
	.size	main, .-main
	.section	.text.__x86.get_pc_thunk.ax,"axG",@progbits,__x86.get_pc_thunk.ax,comdat
	.globl	__x86.get_pc_thunk.ax
	.hidden	__x86.get_pc_thunk.ax
	.type	__x86.get_pc_thunk.ax, @function
__x86.get_pc_thunk.ax:
.LFB4:
	.cfi_startproc
	movl	(%esp), %eax
	ret
	.cfi_endproc
.LFE4:
	.section	.text.__x86.get_pc_thunk.bx,"axG",@progbits,__x86.get_pc_thunk.bx,comdat
	.globl	__x86.get_pc_thunk.bx
	.hidden	__x86.get_pc_thunk.bx
	.type	__x86.get_pc_thunk.bx, @function
__x86.get_pc_thunk.bx:
.LFB5:
	.cfi_startproc
	movl	(%esp), %ebx
	ret
	.cfi_endproc
.LFE5:
	.ident	"GCC: (Debian 6.3.0-18+deb9u1) 6.3.0 20170516"
	.section	.note.GNU-stack,"",@progbits
